; Function Attrs: nounwind uwtable
define nonnull ptr @l_Lean_Compiler_LCNF_AlphaEqv_eqvArg___boxed(ptr noundef %0, ptr noundef %1, ptr noundef %2) local_unnamed_addr #0 {
  %4 = ptrtoint ptr %0 to i64
  %5 = and i64 %4, 1
  %.not.i.i = icmp eq i64 %5, 0
  br i1 %.not.i.i, label %9, label %6

6:                                                ; preds = %3
  %7 = lshr i64 %4, 1
  %8 = trunc i64 %7 to i32
  br label %lean_obj_tag.exit.i

9:                                                ; preds = %3
  %10 = getelementptr i8, ptr %0, i64 4
  %.val.i.i = load i32, ptr %10, align 4
  %11 = lshr i32 %.val.i.i, 24
  br label %lean_obj_tag.exit.i

lean_obj_tag.exit.i:                              ; preds = %9, %6
  %.0.i.i = phi i32 [ %8, %6 ], [ %11, %9 ]
  %12 = ptrtoint ptr %1 to i64
  %13 = and i64 %12, 1
  %.not.i28.i = icmp eq i64 %13, 0
  switch i32 %.0.i.i, label %36 [
    i32 0, label %14
    i32 1, label %22
  ]

14:                                               ; preds = %lean_obj_tag.exit.i
  br i1 %.not.i28.i, label %18, label %15

15:                                               ; preds = %14
  %16 = lshr i64 %12, 1
  %17 = trunc i64 %16 to i32
  br label %lean_obj_tag.exit23.i

18:                                               ; preds = %14
  %19 = getelementptr i8, ptr %1, i64 4
  %.val.i22.i = load i32, ptr %19, align 4
  %20 = lshr i32 %.val.i22.i, 24
  br label %lean_obj_tag.exit23.i

lean_obj_tag.exit23.i:                            ; preds = %18, %15
  %.0.i21.i = phi i32 [ %17, %15 ], [ %20, %18 ]
  %21 = icmp eq i32 %.0.i21.i, 0
  %..i = zext i1 %21 to i8
  br label %l_Lean_Compiler_LCNF_AlphaEqv_eqvArg.exit

22:                                               ; preds = %lean_obj_tag.exit.i
  br i1 %.not.i28.i, label %26, label %23

23:                                               ; preds = %22
  %24 = lshr i64 %12, 1
  %25 = trunc i64 %24 to i32
  br label %lean_obj_tag.exit27.i

26:                                               ; preds = %22
  %27 = getelementptr i8, ptr %1, i64 4
  %.val.i26.i = load i32, ptr %27, align 4
  %28 = lshr i32 %.val.i26.i, 24
  br label %lean_obj_tag.exit27.i

lean_obj_tag.exit27.i:                            ; preds = %26, %23
  %.0.i25.i = phi i32 [ %25, %23 ], [ %28, %26 ]
  %29 = icmp eq i32 %.0.i25.i, 1
  br i1 %29, label %30, label %l_Lean_Compiler_LCNF_AlphaEqv_eqvArg.exit

30:                                               ; preds = %lean_obj_tag.exit27.i
  %31 = getelementptr inbounds nuw i8, ptr %0, i64 8
  %32 = load ptr, ptr %31, align 8, !tbaa !4
  %33 = getelementptr inbounds nuw i8, ptr %1, i64 8
  %34 = load ptr, ptr %33, align 8, !tbaa !4
  %35 = tail call zeroext i8 @l_Lean_Compiler_LCNF_AlphaEqv_eqvFVar(ptr noundef %32, ptr noundef %34, ptr noundef %2)
  br label %l_Lean_Compiler_LCNF_AlphaEqv_eqvArg.exit

36:                                               ; preds = %lean_obj_tag.exit.i
  br i1 %.not.i28.i, label %40, label %37

37:                                               ; preds = %36
  %38 = lshr i64 %12, 1
  %39 = trunc i64 %38 to i32
  br label %lean_obj_tag.exit31.i

40:                                               ; preds = %36
  %41 = getelementptr i8, ptr %1, i64 4
  %.val.i30.i = load i32, ptr %41, align 4
  %42 = lshr i32 %.val.i30.i, 24
  br label %lean_obj_tag.exit31.i

lean_obj_tag.exit31.i:                            ; preds = %40, %37
  %.0.i29.i = phi i32 [ %39, %37 ], [ %42, %40 ]
  %43 = icmp eq i32 %.0.i29.i, 2
  br i1 %43, label %44, label %l_Lean_Compiler_LCNF_AlphaEqv_eqvArg.exit

44:                                               ; preds = %lean_obj_tag.exit31.i
  %45 = getelementptr inbounds nuw i8, ptr %0, i64 8
  %46 = load ptr, ptr %45, align 8, !tbaa !4
  %47 = getelementptr inbounds nuw i8, ptr %1, i64 8
  %48 = load ptr, ptr %47, align 8, !tbaa !4
  %49 = tail call zeroext i8 @l_Lean_Compiler_LCNF_AlphaEqv_eqvType(ptr noundef %46, ptr noundef %48, ptr noundef %2)
  br label %l_Lean_Compiler_LCNF_AlphaEqv_eqvArg.exit

l_Lean_Compiler_LCNF_AlphaEqv_eqvArg.exit:        ; preds = %lean_obj_tag.exit23.i, %lean_obj_tag.exit27.i, %30, %lean_obj_tag.exit31.i, %44
  %.0.i = phi i8 [ %49, %44 ], [ %35, %30 ], [ %..i, %lean_obj_tag.exit23.i ], [ 0, %lean_obj_tag.exit27.i ], [ 0, %lean_obj_tag.exit31.i ]
  %50 = ptrtoint ptr %2 to i64
  %51 = and i64 %50, 1
  %.not = icmp eq i64 %51, 0
  br i1 %.not, label %52, label %lean_dec.exit8

52:                                               ; preds = %l_Lean_Compiler_LCNF_AlphaEqv_eqvArg.exit
  %53 = load i32, ptr %2, align 4, !tbaa !8
  %54 = icmp sgt i32 %53, 1
  br i1 %54, label %55, label %57, !prof !11

55:                                               ; preds = %52
  %56 = add nsw i32 %53, -1
  store i32 %56, ptr %2, align 4, !tbaa !8
  br label %lean_dec.exit8

57:                                               ; preds = %52
  %.not.i = icmp eq i32 %53, 0
  br i1 %.not.i, label %lean_dec.exit8, label %58

58:                                               ; preds = %57
  tail call void @lean_dec_ref_cold(ptr noundef nonnull %2) #4
  br label %lean_dec.exit8

lean_dec.exit8:                                   ; preds = %58, %57, %55, %l_Lean_Compiler_LCNF_AlphaEqv_eqvArg.exit
  br i1 %.not.i28.i, label %59, label %lean_dec.exit7

59:                                               ; preds = %lean_dec.exit8
  %60 = load i32, ptr %1, align 4, !tbaa !8
  %61 = icmp sgt i32 %60, 1
  br i1 %61, label %62, label %64, !prof !11

62:                                               ; preds = %59
  %63 = add nsw i32 %60, -1
  store i32 %63, ptr %1, align 4, !tbaa !8
  br label %lean_dec.exit7

64:                                               ; preds = %59
  %.not.i9 = icmp eq i32 %60, 0
  br i1 %.not.i9, label %lean_dec.exit7, label %65

65:                                               ; preds = %64
  tail call void @lean_dec_ref_cold(ptr noundef nonnull %1) #4
  br label %lean_dec.exit7

lean_dec.exit7:                                   ; preds = %65, %64, %62, %lean_dec.exit8
  br i1 %.not.i.i, label %66, label %lean_dec.exit

66:                                               ; preds = %lean_dec.exit7
  %67 = load i32, ptr %0, align 4, !tbaa !8
  %68 = icmp sgt i32 %67, 1
  br i1 %68, label %69, label %71, !prof !11

69:                                               ; preds = %66
  %70 = add nsw i32 %67, -1
  store i32 %70, ptr %0, align 4, !tbaa !8
  br label %lean_dec.exit

71:                                               ; preds = %66
  %.not.i11 = icmp eq i32 %67, 0
  br i1 %.not.i11, label %lean_dec.exit, label %72

72:                                               ; preds = %71
  tail call void @lean_dec_ref_cold(ptr noundef nonnull %0) #4
  br label %lean_dec.exit

lean_dec.exit:                                    ; preds = %72, %71, %69, %lean_dec.exit7
  %73 = zext i8 %.0.i to i64
  %74 = shl nuw nsw i64 %73, 1
  %75 = or disjoint i64 %74, 1
  %76 = inttoptr i64 %75 to ptr
  ret ptr %76
}